; Function Attrs: mustprogress nounwind uwtable
define hidden noundef double @_ZN10XStatCycle15time_since_lastEv() local_unnamed_addr #0 align 2 {
  %1 = load i64, ptr @_ZN10XStatCycle12_end_of_lastE, align 8
  %2 = icmp eq i64 %1, 0
  br i1 %2, label %3, label %5

3:                                                ; preds = %0
  %4 = tail call noundef double @_ZN2os11elapsedTimeEv() #22
  br label %14

5:                                                ; preds = %0
  %6 = tail call { i64, i64 } @_ZN29CompositeElapsedCounterSource3nowEv() #22
  %7 = extractvalue { i64, i64 } %6, 0
  %8 = extractvalue { i64, i64 } %6, 1
  %9 = load i64, ptr @_ZN10XStatCycle12_end_of_lastE, align 8
  %10 = sub nsw i64 %7, %9
  %11 = load i64, ptr getelementptr inbounds (i8, ptr @_ZN10XStatCycle12_end_of_lastE, i64 8), align 8
  %12 = sub nsw i64 %8, %11
  %13 = tail call noundef double @_ZN29CompositeElapsedCounterSource7secondsE7PairRepIllE(i64 %10, i64 %12) #22
  br label %14

14:                                               ; preds = %5, %3
  %.0 = phi double [ %4, %3 ], [ %13, %5 ]
  ret double %.0
}